; ModuleID = '30/2779.c'
source_filename = "30/2779.c"
target datalayout = "e-m:e-p270:32:32-p271:32:32-p272:64:64-i64:64-f80:128-n8:16:32:64-S128"
target triple = "x86_64-pc-linux-gnu"

@.str = private unnamed_addr constant [3 x i8] c"%d\00", align 1

; Function Attrs: noinline nounwind uwtable
define dso_local i32 @main(i32 %0, i8** %1) #0 {
  %3 = alloca i32, align 4
  %4 = alloca i32, align 4
  %5 = alloca i8**, align 8
  %6 = alloca i32, align 4
  %7 = alloca i32, align 4
  %8 = alloca i32, align 4
  %9 = alloca i32, align 4
  %10 = alloca i32, align 4
  store i32 0, i32* %3, align 4
  store i32 %0, i32* %4, align 4
  store i8** %1, i8*** %5, align 8
  store i32 1, i32* %7, align 4
  store i32 0, i32* %8, align 4
  store i32 0, i32* %9, align 4
  %11 = call i32 (i8*, ...) @__isoc99_scanf(i8* getelementptr inbounds ([3 x i8], [3 x i8]* @.str, i64 0, i64 0), i32* %6)
  %12 = load i32, i32* %6, align 4
  %13 = icmp sle i32 %12, 9
  br i1 %13, label %14, label %35

14:                                               ; preds = %2
  store i32 1, i32* %7, align 4
  br label %15

15:                                               ; preds = %29, %14
  %16 = load i32, i32* %7, align 4
  %17 = load i32, i32* %6, align 4
  %18 = icmp sle i32 %16, %17
  br i1 %18, label %19, label %32

19:                                               ; preds = %15
  %20 = load i32, i32* %7, align 4
  %21 = icmp ne i32 %20, 7
  br i1 %21, label %22, label %28

22:                                               ; preds = %19
  %23 = load i32, i32* %8, align 4
  %24 = load i32, i32* %7, align 4
  %25 = load i32, i32* %7, align 4
  %26 = mul nsw i32 %24, %25
  %27 = add nsw i32 %23, %26
  store i32 %27, i32* %8, align 4
  br label %28

28:                                               ; preds = %22, %19
  br label %29

29:                                               ; preds = %28
  %30 = load i32, i32* %7, align 4
  %31 = add nsw i32 %30, 1
  store i32 %31, i32* %7, align 4
  br label %15

32:                                               ; preds = %15
  %33 = load i32, i32* %8, align 4
  %34 = call i32 (i8*, ...) @printf(i8* getelementptr inbounds ([3 x i8], [3 x i8]* @.str, i64 0, i64 0), i32 %33)
  br label %82

35:                                               ; preds = %2
  store i32 1, i32* %7, align 4
  br label %36

36:                                               ; preds = %73, %35
  %37 = load i32, i32* %7, align 4
  %38 = load i32, i32* %6, align 4
  %39 = icmp sle i32 %37, %38
  br i1 %39, label %40, label %76

40:                                               ; preds = %36
  %41 = load i32, i32* %7, align 4
  %42 = icmp sle i32 %41, 9
  br i1 %42, label %43, label %53

43:                                               ; preds = %40
  %44 = load i32, i32* %7, align 4
  %45 = icmp ne i32 %44, 7
  br i1 %45, label %46, label %52

46:                                               ; preds = %43
  %47 = load i32, i32* %8, align 4
  %48 = load i32, i32* %7, align 4
  %49 = load i32, i32* %7, align 4
  %50 = mul nsw i32 %48, %49
  %51 = add nsw i32 %47, %50
  store i32 %51, i32* %8, align 4
  br label %52

52:                                               ; preds = %46, %43
  br label %72

53:                                               ; preds = %40
  %54 = load i32, i32* %7, align 4
  %55 = sdiv i32 %54, 10
  %56 = icmp ne i32 %55, 7
  br i1 %56, label %57, label %71

57:                                               ; preds = %53
  %58 = load i32, i32* %7, align 4
  %59 = srem i32 %58, 10
  %60 = icmp ne i32 %59, 7
  br i1 %60, label %61, label %71

61:                                               ; preds = %57
  %62 = load i32, i32* %7, align 4
  %63 = srem i32 %62, 7
  %64 = icmp ne i32 %63, 0
  br i1 %64, label %65, label %71

65:                                               ; preds = %61
  %66 = load i32, i32* %9, align 4
  %67 = load i32, i32* %7, align 4
  %68 = load i32, i32* %7, align 4
  %69 = mul nsw i32 %67, %68
  %70 = add nsw i32 %66, %69
  store i32 %70, i32* %9, align 4
  br label %71

71:                                               ; preds = %65, %61, %57, %53
  br label %72

72:                                               ; preds = %71, %52
  br label %73

73:                                               ; preds = %72
  %74 = load i32, i32* %7, align 4
  %75 = add nsw i32 %74, 1
  store i32 %75, i32* %7, align 4
  br label %36

76:                                               ; preds = %36
  %77 = load i32, i32* %8, align 4
  %78 = load i32, i32* %9, align 4
  %79 = add nsw i32 %77, %78
  store i32 %79, i32* %10, align 4
  %80 = load i32, i32* %10, align 4
  %81 = call i32 (i8*, ...) @printf(i8* getelementptr inbounds ([3 x i8], [3 x i8]* @.str, i64 0, i64 0), i32 %80)
  br label %82

82:                                               ; preds = %76, %32
  ret i32 0
}

declare dso_local i32 @__isoc99_scanf(i8*, ...) #1

declare dso_local i32 @printf(i8*, ...) #1


!llvm.module.flags = !{!0}
!llvm.ident = !{!1}

!0 = !{i32 1, !"wchar_size", i32 4}
!1 = !{!"clang version 10.0.0-4ubuntu1 "}
